(dp0
S'matches'
p1
(dp2
S'4a75ed64'
p3
(icore
Match
p4
(dp5
S'players2'
p6
(lp7
VU0HTQJMHN
p8
aVU0HTJ2DK6
p9
asS'players1'
p10
(lp11
VU0HTPS3JS
p12
aVU0HTPM4P8
p13
asS'when'
p14
cdatetime
datetime
p15
(S'\x07\xe0\x04\x19\x0c;/\x0b\xd6\xe3'
p16
tp17
Rp18
sS'score1'
p19
I6
sS'score2'
p20
I10
sbsS'9be5b729'
p21
(icore
Match
p22
(dp23
g6
(lp24
VU0KA76231
p25
aVU0J0XLJUD
p26
asg10
(lp27
VU0HTM03A7
p28
aVU0HTPM4P8
p29
asg14
g15
(S'\x07\xe0\x04\x16\x0f\x05\x11\x03\xae\xde'
p30
tp31
Rp32
sg19
I6
sg20
I10
sbsS'01199838'
p33
(icore
Match
p34
(dp35
g6
(lp36
VU0HTPM4P8
p37
aVU0J0XLJUD
p38
asg10
(lp39
VU0HTM03A7
p40
aVU0KA76231
p41
asg14
g15
(S'\x07\xe0\x04\x16\x0f\x04#\x07\x02\x03'
p42
tp43
Rp44
sg19
I4
sg20
I10
sbsS'025ec901'
p45
(icore
Match
p46
(dp47
g6
(lp48
VU0W5T83EK
p49
aVU0J0XLJUD
p50
asg10
(lp51
VU0HTQJMHN
p52
aVU0JBNHJ3X
p53
asg14
g15
(S'\x07\xe0\x04\x16\x13\x01\t\r\xcb\x9c'
p54
tp55
Rp56
sg19
I10
sg20
I6
sbsS'cc34f76f'
p57
(icore
Match
p58
(dp59
g6
(lp60
VU0KA76231
p61
aVU0HTPS3JS
p62
asg10
(lp63
VU0HTQ6XQQ
p64
aVU0JBNHJ3X
p65
asg14
g15
(S"\x07\xe0\x04\x16\x124'\x05\x0f\x0c"
p66
tp67
Rp68
sg19
I7
sg20
I10
sbsS'a3ba28f1'
p69
(icore
Match
p70
(dp71
g6
(lp72
VU0HTR4KRT
p73
aVU0J0XLJUD
p74
asg10
(lp75
VU0JBNHJ3X
p76
aVU0HTVTLBS
p77
asg14
g15
(S'\x07\xe0\x04\x19\x0c;\x15\x0f1p'
p78
tp79
Rp80
sg19
I3
sg20
I10
sbsS'8ab3afe5'
p81
(icore
Match
p82
(dp83
g6
(lp84
VU0J8ETRH7
p85
aVU0HTPS3JS
p86
asg10
(lp87
VU0HTQJMHN
p88
aVU0HTVEJKC
p89
asg14
g15
(S'\x07\xe0\x04\x16\r4\x04\r\xa9P'
p90
tp91
Rp92
sg19
I10
sg20
I6
sbsS'628ba1e5'
p93
(icore
Match
p94
(dp95
g6
(lp96
VU0HTPS3JS
p97
aVU0JBNHJ3X
p98
asg10
(lp99
VU0KA76231
p100
aVU0J13UGAF
p101
asg14
g15
(S'\x07\xe0\x04\x16\x12\x0b.\tx\xf5'
p102
tp103
Rp104
sg19
I10
sg20
I9
sbsS'14d3f983'
p105
(icore
Match
p106
(dp107
g6
(lp108
VU0JBNHJ3X
p109
aVU0W5T83EK
p110
asg10
(lp111
VU0HTPS3JS
p112
aVU0HTQ6XQQ
p113
asg14
g15
(S'\x07\xe0\x04\x19\t7\x08\x05\xb1\xcc'
p114
tp115
Rp116
sg19
I10
sg20
I7
sbsS'effcb3da'
p117
(icore
Match
p118
(dp119
g6
(lp120
VU0J8ETRH7
p121
aVU0HTPS3JS
p122
asg10
(lp123
VU0HTQJMHN
p124
aVU0HTVEJKC
p125
asg14
g15
(S'\x07\xe0\x04\x16\r4\r\x0e\x90\x1a'
p126
tp127
Rp128
sg19
I12
sg20
I10
sbsS'3314d523'
p129
(icore
Match
p130
(dp131
g6
(lp132
VU0HTM03A7
p133
aVU0J8ETRH7
p134
asg10
(lp135
VU0J13UGAF
p136
aVU0HTPUK8R
p137
asg14
g15
(S'\x07\xe0\x04\x16\r\x144\x07o\xd6'
p138
tp139
Rp140
sg19
I10
sg20
I9
sbsS'2d8ef907'
p141
(icore
Match
p142
(dp143
g6
(lp144
VU0KA76231
p145
aVU0HTPS3JS
p146
asg10
(lp147
VU0HTQJMHN
p148
aVU0HTQ6XQQ
p149
asg14
g15
(S'\x07\xe0\x04\x16\x13\x077\x04Y\x83'
p150
tp151
Rp152
sg19
I10
sg20
I5
sbsS'e87df8b2'
p153
(icore
Match
p154
(dp155
g6
(lp156
VU0KA76231
p157
aVU0HTQ6XQQ
p158
asg10
(lp159
VU0JBNHJ3X
p160
aVU0J0XLJUD
p161
asg14
g15
(S'\x07\xe0\x04\x16\x13\x12-\x0e\x0f\x1f'
p162
tp163
Rp164
sg19
I10
sg20
I9
sbsS'141b152d'
p165
(icore
Match
p166
(dp167
g6
(lp168
VU0J13UGAF
p169
aVU0HTSHTR9
p170
asg10
(lp171
VU0J0XLJUD
p172
aVU0HTPM4P8
p173
asg14
g15
(S'\x07\xe0\x04\x16\x12\x1a+\x02wq'
p174
tp175
Rp176
sg19
I7
sg20
I10
sbsS'0b2692aa'
p177
(icore
Match
p178
(dp179
g6
(lp180
VU0JBNHJ3X
p181
aVU0J8ETRH7
p182
asg10
(lp183
VU0J13UGAF
p184
aVU0834SYHL
p185
asg14
g15
(S'\x07\xe0\x04\x19\x0c)\x00\x06\x96\x12'
p186
tp187
Rp188
sg19
I2
sg20
I10
sbsS'bf911ea4'
p189
(icore
Match
p190
(dp191
g6
(lp192
VU0J0XLJUD
p193
aVU0HTQ6XQQ
p194
asg10
(lp195
VU0HTQJMHN
p196
aVU0KA76231
p197
asg14
g15
(S'\x07\xe0\x04\x16\x12*7\x07\xc56'
p198
tp199
Rp200
sg19
I10
sg20
I8
sbsS'55cd1f2e'
p201
(icore
Match
p202
(dp203
g6
(lp204
VU0KA76231
p205
aVU0W5T83EK
p206
asg10
(lp207
VU0J8ETRH7
p208
aVU0HTPM4P8
p209
asg14
g15
(S'\x07\xe0\x04\x16\x11$\x14\n\x83T'
p210
tp211
Rp212
sg19
I10
sg20
I4
sbsS'304b85c2'
p213
(icore
Match
p214
(dp215
g6
(lp216
VU0HTVEJKC
p217
aVU0HTJ2DK6
p218
asg10
(lp219
VU0HTPS3JS
p220
aVU0HTQJMHN
p221
asg14
g15
(S'\x07\xe0\x04\x19\r\x01$\x0bc\xba'
p222
tp223
Rp224
sg19
I10
sg20
I1
sbsS'6b38a3e7'
p225
(icore
Match
p226
(dp227
g6
(lp228
VU0HTPS3JS
p229
aVU0HTPM4P8
p230
asg10
(lp231
VU0HTQJMHN
p232
aVU0W5T83EK
p233
asg14
g15
(S'\x07\xe0\x04\x16\x13\x1d\x0c\x00`\xfb'
p234
tp235
Rp236
sg19
I10
sg20
I8
sbsS'08732c42'
p237
(icore
Match
p238
(dp239
g6
(lp240
VU0HTR4KRT
p241
aVU0J0XLJUD
p242
asg10
(lp243
VU0JBNHJ3X
p244
aVU0HTVTLBS
p245
asg14
g15
(S'\x07\xe0\x04\x19\x0c;\x04\t\xc4\xf7'
p246
tp247
Rp248
sg19
I5
sg20
I10
sbsS'5ca83501'
p249
(icore
Match
p250
(dp251
g6
(lp252
VU0HTSHTR9
p253
aVU0HTVEJKC
p254
asg10
(lp255
VU0HTPS3JS
p256
aVU0JBNHJ3X
p257
asg14
g15
(S'\x07\xe0\x04\x16\x12\x0b$\x0cx\x05'
p258
tp259
Rp260
sg19
I10
sg20
I5
sbsS'a5ae6c44'
p261
(icore
Match
p262
(dp263
g6
(lp264
VU0HTQ6XQQ
p265
aVU0HTPS3JS
p266
asg10
(lp267
VU0JBNHJ3X
p268
aVU0HTQJMHN
p269
asg14
g15
(S'\x07\xe0\x04\x19\t7 \x0b\xf1]'
p270
tp271
Rp272
sg19
I10
sg20
I4
sbsS'6fcd422c'
p273
(icore
Match
p274
(dp275
g6
(lp276
VU0HTQ6XQQ
p277
aVU0J0XLJUD
p278
asg10
(lp279
VU0HTPS3JS
p280
aVU0HTQJMHN
p281
asg14
g15
(S'\x07\xe0\x04\x19\t7\x11\x08W\xfb'
p282
tp283
Rp284
sg19
I10
sg20
I6
sbsS'9adf27a7'
p285
(icore
Match
p286
(dp287
g6
(lp288
VU0J0XLJUD
p289
aVU0HTVEJKC
p290
asg10
(lp291
VU0J13UGAF
p292
aVU0HTSHTR9
p293
asg14
g15
(S'\x07\xe0\x04\x16\x12\x0b\x18\x0eTw'
p294
tp295
Rp296
sg19
I5
sg20
I10
sbsS'b00bec63'
p297
(icore
Match
p298
(dp299
g6
(lp300
VU0HTPS3JS
p301
aVU0JBNHJ3X
p302
asg10
(lp303
VU0KA76231
p304
aVU0J13UGAF
p305
asg14
g15
(S'\x07\xe0\x04\x16\x12\x0b\x11\x00L\xe7'
p306
tp307
Rp308
sg19
I10
sg20
I6
sbsS'71b0cc75'
p309
(icore
Match
p310
(dp311
g6
(lp312
VU0KA76231
p313
aVU0W5T83EK
p314
asg10
(lp315
VU0J8ETRH7
p316
aVU0HTPM4P8
p317
asg14
g15
(S'\x07\xe0\x04\x16\x11$#\x0beR'
p318
tp319
Rp320
sg19
I9
sg20
I10
sbsS'e44012c5'
p321
(icore
Match
p322
(dp323
g6
(lp324
VU0HTSHTR9
p325
aVU0JBNHJ3X
p326
asg10
(lp327
VU0HTPS3JS
p328
aVU0HTQJMHN
p329
asg14
g15
(S'\x07\xe0\x04\x16\x12 \n\t\xbf\x1b'
p330
tp331
Rp332
sg19
I10
sg20
I8
sbsS'e7e76b6e'
p333
(icore
Match
p334
(dp335
g6
(lp336
VU0HTQ6XQQ
p337
aVU0JBNHJ3X
p338
asg10
(lp339
VU0HTPS3JS
p340
aVU0HTQJMHN
p341
asg14
g15
(S'\x07\xe0\x04\x19\t7\x19\x06\x03*'
p342
tp343
Rp344
sg19
I10
sg20
I5
sbss.